; Function Attrs: mustprogress nofree norecurse nosync nounwind willreturn memory(read, argmem: readwrite, inaccessiblemem: none) uwtable
define hidden noundef ptr @_ZN5ceres8internal31BlockRandomAccessDiagonalMatrix7GetCellEiiPiS2_S2_S2_(ptr noundef nonnull readonly align 8 captures(none) dereferenceable(40) %0, i32 noundef %1, i32 noundef %2, ptr noundef writeonly captures(none) %3, ptr noundef writeonly captures(none) %4, ptr noundef writeonly captures(none) %5, ptr noundef writeonly captures(none) %6) unnamed_addr #4 align 2 {
  %.not = icmp eq i32 %1, %2
  br i1 %.not, label %8, label %19

8:                                                ; preds = %7
  %9 = getelementptr inbounds nuw i8, ptr %0, i64 24
  %10 = load ptr, ptr %9, align 8, !tbaa !28
  %11 = getelementptr inbounds nuw i8, ptr %10, i64 96
  %12 = sext i32 %1 to i64
  %13 = load ptr, ptr %11, align 8, !tbaa !35
  %14 = getelementptr inbounds nuw %"struct.ceres::internal::Block", ptr %13, i64 %12
  %15 = load i32, ptr %14, align 4, !tbaa !44
  store i32 0, ptr %3, align 4, !tbaa !48
  store i32 0, ptr %4, align 4, !tbaa !48
  store i32 %15, ptr %5, align 4, !tbaa !48
  store i32 %15, ptr %6, align 4, !tbaa !48
  %16 = getelementptr inbounds nuw i8, ptr %0, i64 32
  %17 = load ptr, ptr %16, align 8, !tbaa !39
  %18 = getelementptr inbounds nuw %"struct.ceres::internal::CellInfo", ptr %17, i64 %12
  br label %19

19:                                               ; preds = %7, %8
  %.0 = phi ptr [ %18, %8 ], [ null, %7 ]
  ret ptr %.0
}